target datalayout = "e-m:e-p270:32:32-p271:32:32-p272:64:64-i64:64-i128:128-f80:128-n8:16:32:64-S128"
target triple = "x86_64-pc-linux-gnu"

%"class.icu_77::Locale" = type <{ %"class.icu_77::UObject", [12 x i8], [6 x i8], [4 x i8], [2 x i8], i32, [4 x i8], ptr, [157 x i8], [3 x i8], ptr, i8, [7 x i8] }>
%"class.icu_77::UObject" = type { ptr }

; Function Attrs: mustprogress uwtable
define ptr @uplrules_openForType_77(ptr noundef %0, i32 noundef %1, ptr noundef %2) #1 personality ptr @__gxx_personality_v0 {
  %4 = alloca ptr, align 8
  %5 = alloca i32, align 4
  %6 = alloca ptr, align 8
  %7 = alloca %"class.icu_77::Locale", align 8
  %8 = alloca ptr, align 8
  %9 = alloca i32, align 4
  store ptr %0, ptr %4, align 8, !tbaa !17
  store i32 %1, ptr %5, align 4, !tbaa !23
  store ptr %2, ptr %6, align 8, !tbaa !22
  call void @llvm.lifetime.start.p0(i64 224, ptr %7) #11
  %10 = load ptr, ptr %4, align 8, !tbaa !17
  call void @_ZN6icu_776LocaleC1EPKcS2_S2_S2_(ptr noundef nonnull align 8 dereferenceable(217) %7, ptr noundef %10, ptr noundef null, ptr noundef null, ptr noundef null)
  %11 = load i32, ptr %5, align 4, !tbaa !23
  %12 = load ptr, ptr %6, align 8, !tbaa !22
  %13 = invoke noundef ptr @_ZN6icu_7711PluralRules9forLocaleERKNS_6LocaleE11UPluralTypeR10UErrorCode(ptr noundef nonnull align 8 dereferenceable(217) %7, i32 noundef %11, ptr noundef nonnull align 4 dereferenceable(4) %12)
          to label %14 unwind label %15

14:                                               ; preds = %3
  call void @_ZN6icu_776LocaleD1Ev(ptr noundef nonnull align 8 dereferenceable(217) %7) #11
  call void @llvm.lifetime.end.p0(i64 224, ptr %7) #11
  ret ptr %13

15:                                               ; preds = %3
  %16 = landingpad { ptr, i32 }
          cleanup
  %17 = extractvalue { ptr, i32 } %16, 0
  store ptr %17, ptr %8, align 8
  %18 = extractvalue { ptr, i32 } %16, 1
  store i32 %18, ptr %9, align 4
  call void @_ZN6icu_776LocaleD1Ev(ptr noundef nonnull align 8 dereferenceable(217) %7) #11
  call void @llvm.lifetime.end.p0(i64 224, ptr %7) #11
  br label %19

19:                                               ; preds = %15
  %20 = load ptr, ptr %8, align 8
  %21 = load i32, ptr %9, align 4
  %22 = insertvalue { ptr, i32 } poison, ptr %20, 0
  %23 = insertvalue { ptr, i32 } %22, i32 %21, 1
  resume { ptr, i32 } %23
}

; Function Attrs: mustprogress uwtable
define ptr @uplrules_open_77(ptr noundef %0, ptr noundef %1) #1 {
  %3 = alloca ptr, align 8
  %4 = alloca ptr, align 8
  store ptr %0, ptr %3, align 8, !tbaa !17
  store ptr %1, ptr %4, align 8, !tbaa !22
  %5 = load ptr, ptr %3, align 8, !tbaa !17
  %6 = load ptr, ptr %4, align 8, !tbaa !22
  %7 = call ptr @uplrules_openForType_77(ptr noundef %5, i32 noundef 0, ptr noundef %6)
  ret ptr %7
}