; Function Attrs: mustprogress uwtable
define noundef ptr @uplrules_open_77(ptr noundef %0, ptr noundef %1) local_unnamed_addr #1 personality ptr @__gxx_personality_v0 {
  %3 = alloca %"class.icu_77::Locale", align 8
  call void @llvm.lifetime.start.p0(i64 224, ptr nonnull %3) #14
  call void @_ZN6icu_776LocaleC1EPKcS2_S2_S2_(ptr noundef nonnull align 8 dereferenceable(217) %3, ptr noundef %0, ptr noundef null, ptr noundef null, ptr noundef null)
  %4 = invoke noundef ptr @_ZN6icu_7711PluralRules9forLocaleERKNS_6LocaleE11UPluralTypeR10UErrorCode(ptr noundef nonnull align 8 dereferenceable(217) %3, i32 noundef 0, ptr noundef nonnull align 4 dereferenceable(4) %1)
          to label %uplrules_openForType_77.exit unwind label %5

5:                                                ; preds = %2
  %6 = landingpad { ptr, i32 }
          cleanup
  call void @_ZN6icu_776LocaleD1Ev(ptr noundef nonnull align 8 dereferenceable(217) %3) #14
  call void @llvm.lifetime.end.p0(i64 224, ptr nonnull %3) #14
  resume { ptr, i32 } %6

uplrules_openForType_77.exit:                     ; preds = %2
  call void @_ZN6icu_776LocaleD1Ev(ptr noundef nonnull align 8 dereferenceable(217) %3) #14
  call void @llvm.lifetime.end.p0(i64 224, ptr nonnull %3) #14
  ret ptr %4
}